; ModuleID = '28/616.c'
source_filename = "28/616.c"
target datalayout = "e-m:e-p270:32:32-p271:32:32-p272:64:64-i64:64-f80:128-n8:16:32:64-S128"
target triple = "x86_64-pc-linux-gnu"

@.str = private unnamed_addr constant [3 x i8] c"%s\00", align 1
@.str.1 = private unnamed_addr constant [4 x i8] c"%d,\00", align 1
@.str.2 = private unnamed_addr constant [3 x i8] c"%d\00", align 1

; Function Attrs: noinline nounwind uwtable
define dso_local void @main() #0 {
  %1 = alloca [300 x [50 x i8]], align 16
  %2 = alloca i8, align 1
  %3 = alloca i32, align 4
  %4 = alloca i32, align 4
  %5 = alloca i32, align 4
  %6 = alloca [300 x i32], align 16
  %7 = alloca i32, align 4
  store i32 1, i32* %3, align 4
  store i32 0, i32* %4, align 4
  store i32 0, i32* %5, align 4
  br label %8

8:                                                ; preds = %31, %18, %0
  %9 = load i32, i32* %3, align 4
  %10 = sext i32 %9 to i64
  %11 = getelementptr inbounds [300 x [50 x i8]], [300 x [50 x i8]]* %1, i64 0, i64 %10
  %12 = getelementptr inbounds [50 x i8], [50 x i8]* %11, i64 0, i64 0
  %13 = call i32 (i8*, ...) @__isoc99_scanf(i8* getelementptr inbounds ([3 x i8], [3 x i8]* @.str, i64 0, i64 0), i8* %12)
  %14 = call i32 @getchar()
  %15 = trunc i32 %14 to i8
  store i8 %15, i8* %2, align 1
  %16 = sext i8 %15 to i32
  %17 = icmp eq i32 %16, 32
  br i1 %17, label %18, label %23

18:                                               ; preds = %8
  %19 = load i32, i32* %3, align 4
  %20 = add nsw i32 %19, 1
  store i32 %20, i32* %3, align 4
  %21 = load i32, i32* %5, align 4
  %22 = add nsw i32 %21, 1
  store i32 %22, i32* %5, align 4
  br label %8

23:                                               ; preds = %8
  %24 = load i8, i8* %2, align 1
  %25 = sext i8 %24 to i32
  %26 = icmp eq i32 %25, 10
  br i1 %26, label %27, label %30

27:                                               ; preds = %23
  %28 = load i32, i32* %5, align 4
  %29 = add nsw i32 %28, 1
  store i32 %29, i32* %5, align 4
  br label %32

30:                                               ; preds = %23
  br label %31

31:                                               ; preds = %30
  br label %8

32:                                               ; preds = %27
  store i32 1, i32* %3, align 4
  br label %33

33:                                               ; preds = %46, %32
  %34 = load i32, i32* %3, align 4
  %35 = load i32, i32* %5, align 4
  %36 = icmp slt i32 %34, %35
  br i1 %36, label %37, label %49

37:                                               ; preds = %33
  %38 = load i32, i32* %3, align 4
  %39 = sext i32 %38 to i64
  %40 = getelementptr inbounds [300 x [50 x i8]], [300 x [50 x i8]]* %1, i64 0, i64 %39
  %41 = getelementptr inbounds [50 x i8], [50 x i8]* %40, i64 0, i64 0
  %42 = call i64 @strlen(i8* %41) #3
  %43 = trunc i64 %42 to i32
  store i32 %43, i32* %7, align 4
  %44 = load i32, i32* %7, align 4
  %45 = call i32 (i8*, ...) @printf(i8* getelementptr inbounds ([4 x i8], [4 x i8]* @.str.1, i64 0, i64 0), i32 %44)
  br label %46

46:                                               ; preds = %37
  %47 = load i32, i32* %3, align 4
  %48 = add nsw i32 %47, 1
  store i32 %48, i32* %3, align 4
  br label %33

49:                                               ; preds = %33
  %50 = load i32, i32* %5, align 4
  %51 = sext i32 %50 to i64
  %52 = getelementptr inbounds [300 x [50 x i8]], [300 x [50 x i8]]* %1, i64 0, i64 %51
  %53 = getelementptr inbounds [50 x i8], [50 x i8]* %52, i64 0, i64 0
  %54 = call i64 @strlen(i8* %53) #3
  %55 = trunc i64 %54 to i32
  store i32 %55, i32* %7, align 4
  %56 = load i32, i32* %7, align 4
  %57 = call i32 (i8*, ...) @printf(i8* getelementptr inbounds ([3 x i8], [3 x i8]* @.str.2, i64 0, i64 0), i32 %56)
  ret void
}

declare dso_local i32 @__isoc99_scanf(i8*, ...) #1

declare dso_local i32 @getchar() #1

; Function Attrs: nounwind readonly
declare dso_local i64 @strlen(i8*) #2

declare dso_local i32 @printf(i8*, ...) #1


!llvm.module.flags = !{!0}
!llvm.ident = !{!1}

!0 = !{i32 1, !"wchar_size", i32 4}
!1 = !{!"clang version 10.0.0-4ubuntu1 "}
